; Function Attrs: mustprogress uwtable
define hidden noundef nonnull align 8 dereferenceable(8) ptr @_ZN4cvc58internallsERSoRKNS0_4SubsE(ptr noundef nonnull returned align 8 dereferenceable(8) %0, ptr noundef nonnull readonly align 8 captures(none) dereferenceable(56) %1) local_unnamed_addr #6 personality ptr @__gxx_personality_v0 {
  %3 = alloca %"class.std::__cxx11::basic_string", align 8
  call void @llvm.lifetime.start.p0(i64 32, ptr nonnull %3) #22
  call void @_ZNK4cvc58internal4Subs8toStringB5cxx11Ev(ptr dead_on_unwind nonnull writable sret(%"class.std::__cxx11::basic_string") align 8 %3, ptr noundef nonnull align 8 dereferenceable(56) %1)
  %4 = load ptr, ptr %3, align 8, !tbaa !34
  %5 = getelementptr inbounds nuw i8, ptr %3, i64 8
  %6 = load i64, ptr %5, align 8, !tbaa !30
  %7 = invoke noundef nonnull align 8 dereferenceable(8) ptr @_ZSt16__ostream_insertIcSt11char_traitsIcEERSt13basic_ostreamIT_T0_ES6_PKS3_l(ptr noundef nonnull align 8 dereferenceable(8) %0, ptr noundef %4, i64 noundef %6)
          to label %_ZStlsIcSt11char_traitsIcESaIcEERSt13basic_ostreamIT_T0_ES7_RKNSt7__cxx1112basic_stringIS4_S5_T1_EE.exit unwind label %15

_ZStlsIcSt11char_traitsIcESaIcEERSt13basic_ostreamIT_T0_ES7_RKNSt7__cxx1112basic_stringIS4_S5_T1_EE.exit: ; preds = %2
  %8 = load ptr, ptr %3, align 8, !tbaa !34
  %9 = getelementptr inbounds nuw i8, ptr %3, i64 16
  %10 = icmp eq ptr %8, %9
  br i1 %10, label %_ZNKSt7__cxx1112basic_stringIcSt11char_traitsIcESaIcEE11_M_is_localEv.exit.thread.i.i, label %_ZNKSt7__cxx1112basic_stringIcSt11char_traitsIcESaIcEE11_M_is_localEv.exit.i.i

_ZNKSt7__cxx1112basic_stringIcSt11char_traitsIcESaIcEE11_M_is_localEv.exit.thread.i.i: ; preds = %_ZStlsIcSt11char_traitsIcESaIcEERSt13basic_ostreamIT_T0_ES7_RKNSt7__cxx1112basic_stringIS4_S5_T1_EE.exit
  %11 = load i64, ptr %5, align 8, !tbaa !30
  %12 = icmp ult i64 %11, 16
  call void @llvm.assume(i1 %12)
  br label %_ZNSt7__cxx1112basic_stringIcSt11char_traitsIcESaIcEED2Ev.exit

_ZNKSt7__cxx1112basic_stringIcSt11char_traitsIcESaIcEE11_M_is_localEv.exit.i.i: ; preds = %_ZStlsIcSt11char_traitsIcESaIcEERSt13basic_ostreamIT_T0_ES7_RKNSt7__cxx1112basic_stringIS4_S5_T1_EE.exit
  %13 = load i64, ptr %9, align 8, !tbaa !33
  %14 = add i64 %13, 1
  call void @_ZdlPvm(ptr noundef %8, i64 noundef %14) #23
  br label %_ZNSt7__cxx1112basic_stringIcSt11char_traitsIcESaIcEED2Ev.exit

_ZNSt7__cxx1112basic_stringIcSt11char_traitsIcESaIcEED2Ev.exit: ; preds = %_ZNKSt7__cxx1112basic_stringIcSt11char_traitsIcESaIcEE11_M_is_localEv.exit.thread.i.i, %_ZNKSt7__cxx1112basic_stringIcSt11char_traitsIcESaIcEE11_M_is_localEv.exit.i.i
  call void @llvm.lifetime.end.p0(i64 32, ptr nonnull %3) #22
  ret ptr %0

15:                                               ; preds = %2
  %16 = landingpad { ptr, i32 }
          cleanup
  %17 = load ptr, ptr %3, align 8, !tbaa !34
  %18 = getelementptr inbounds nuw i8, ptr %3, i64 16
  %19 = icmp eq ptr %17, %18
  br i1 %19, label %_ZNKSt7__cxx1112basic_stringIcSt11char_traitsIcESaIcEE11_M_is_localEv.exit.thread.i.i5, label %_ZNKSt7__cxx1112basic_stringIcSt11char_traitsIcESaIcEE11_M_is_localEv.exit.i.i4

_ZNKSt7__cxx1112basic_stringIcSt11char_traitsIcESaIcEE11_M_is_localEv.exit.thread.i.i5: ; preds = %15
  %20 = load i64, ptr %5, align 8, !tbaa !30
  %21 = icmp ult i64 %20, 16
  call void @llvm.assume(i1 %21)
  br label %_ZNSt7__cxx1112basic_stringIcSt11char_traitsIcESaIcEED2Ev.exit6

_ZNKSt7__cxx1112basic_stringIcSt11char_traitsIcESaIcEE11_M_is_localEv.exit.i.i4: ; preds = %15
  %22 = load i64, ptr %18, align 8, !tbaa !33
  %23 = add i64 %22, 1
  call void @_ZdlPvm(ptr noundef %17, i64 noundef %23) #23
  br label %_ZNSt7__cxx1112basic_stringIcSt11char_traitsIcESaIcEED2Ev.exit6

_ZNSt7__cxx1112basic_stringIcSt11char_traitsIcESaIcEED2Ev.exit6: ; preds = %_ZNKSt7__cxx1112basic_stringIcSt11char_traitsIcESaIcEE11_M_is_localEv.exit.thread.i.i5, %_ZNKSt7__cxx1112basic_stringIcSt11char_traitsIcESaIcEE11_M_is_localEv.exit.i.i4
  call void @llvm.lifetime.end.p0(i64 32, ptr nonnull %3) #22
  resume { ptr, i32 } %16
}